target datalayout = "e-m:e-p270:32:32-p271:32:32-p272:64:64-i64:64-i128:128-f80:128-n8:16:32:64-S128"
target triple = "x86_64-pc-linux-gnu"

%struct.AVFilterContext = type { ptr, ptr, ptr, ptr, ptr, i32, ptr, ptr, i32, ptr, ptr, i32, i32, ptr, ptr, ptr, ptr, i32, ptr, i32, i32 }
%struct.RemovelogoContext = type { ptr, ptr, ptr, i32, i32, i32, ptr, %struct.FFBoundingBox, ptr, %struct.FFBoundingBox }
%struct.FFBoundingBox = type { i32, i32, i32, i32 }

; Function Attrs: cold nounwind optsize uwtable
define internal void @uninit(ptr noundef %0) #0 {
  %2 = alloca ptr, align 8
  %3 = alloca ptr, align 8
  %4 = alloca i32, align 4
  %5 = alloca i32, align 4
  store ptr %0, ptr %2, align 8, !tbaa !4
  call void @llvm.lifetime.start.p0(i64 8, ptr %3) #4
  %6 = load ptr, ptr %2, align 8, !tbaa !4
  %7 = getelementptr inbounds nuw %struct.AVFilterContext, ptr %6, i32 0, i32 9
  %8 = load ptr, ptr %7, align 8, !tbaa !9
  store ptr %8, ptr %3, align 8, !tbaa !22
  call void @llvm.lifetime.start.p0(i64 4, ptr %4) #4
  call void @llvm.lifetime.start.p0(i64 4, ptr %5) #4
  %9 = load ptr, ptr %3, align 8, !tbaa !22
  %10 = getelementptr inbounds nuw %struct.RemovelogoContext, ptr %9, i32 0, i32 6
  call void @av_freep(ptr noundef %10)
  %11 = load ptr, ptr %3, align 8, !tbaa !22
  %12 = getelementptr inbounds nuw %struct.RemovelogoContext, ptr %11, i32 0, i32 8
  call void @av_freep(ptr noundef %12)
  %13 = load ptr, ptr %3, align 8, !tbaa !22
  %14 = getelementptr inbounds nuw %struct.RemovelogoContext, ptr %13, i32 0, i32 2
  %15 = load ptr, ptr %14, align 8, !tbaa !44
  %16 = icmp ne ptr %15, null
  br i1 %16, label %17, label %60

17:                                               ; preds = %1
  store i32 0, ptr %4, align 4, !tbaa !24
  br label %18

18:                                               ; preds = %54, %17
  %19 = load i32, ptr %4, align 4, !tbaa !24
  %20 = load ptr, ptr %3, align 8, !tbaa !22
  %21 = getelementptr inbounds nuw %struct.RemovelogoContext, ptr %20, i32 0, i32 3
  %22 = load i32, ptr %21, align 8, !tbaa !34
  %23 = icmp sle i32 %19, %22
  br i1 %23, label %24, label %57

24:                                               ; preds = %18
  %25 = load i32, ptr %4, align 4, !tbaa !24
  %26 = sub nsw i32 0, %25
  store i32 %26, ptr %5, align 4, !tbaa !24
  br label %27

27:                                               ; preds = %44, %24
  %28 = load i32, ptr %5, align 4, !tbaa !24
  %29 = load i32, ptr %4, align 4, !tbaa !24
  %30 = icmp sle i32 %28, %29
  br i1 %30, label %31, label %47

31:                                               ; preds = %27
  %32 = load ptr, ptr %3, align 8, !tbaa !22
  %33 = getelementptr inbounds nuw %struct.RemovelogoContext, ptr %32, i32 0, i32 2
  %34 = load ptr, ptr %33, align 8, !tbaa !44
  %35 = load i32, ptr %4, align 4, !tbaa !24
  %36 = sext i32 %35 to i64
  %37 = getelementptr inbounds ptr, ptr %34, i64 %36
  %38 = load ptr, ptr %37, align 8, !tbaa !36
  %39 = load i32, ptr %5, align 4, !tbaa !24
  %40 = load i32, ptr %4, align 4, !tbaa !24
  %41 = add nsw i32 %39, %40
  %42 = sext i32 %41 to i64
  %43 = getelementptr inbounds ptr, ptr %38, i64 %42
  call void @av_freep(ptr noundef %43)
  br label %44

44:                                               ; preds = %31
  %45 = load i32, ptr %5, align 4, !tbaa !24
  %46 = add nsw i32 %45, 1
  store i32 %46, ptr %5, align 4, !tbaa !24
  br label %27, !llvm.loop !53

47:                                               ; preds = %27
  %48 = load ptr, ptr %3, align 8, !tbaa !22
  %49 = getelementptr inbounds nuw %struct.RemovelogoContext, ptr %48, i32 0, i32 2
  %50 = load ptr, ptr %49, align 8, !tbaa !44
  %51 = load i32, ptr %4, align 4, !tbaa !24
  %52 = sext i32 %51 to i64
  %53 = getelementptr inbounds ptr, ptr %50, i64 %52
  call void @av_freep(ptr noundef %53)
  br label %54

54:                                               ; preds = %47
  %55 = load i32, ptr %4, align 4, !tbaa !24
  %56 = add nsw i32 %55, 1
  store i32 %56, ptr %4, align 4, !tbaa !24
  br label %18, !llvm.loop !54

57:                                               ; preds = %18
  %58 = load ptr, ptr %3, align 8, !tbaa !22
  %59 = getelementptr inbounds nuw %struct.RemovelogoContext, ptr %58, i32 0, i32 2
  call void @av_freep(ptr noundef %59)
  br label %60

60:                                               ; preds = %57, %1
  call void @llvm.lifetime.end.p0(i64 4, ptr %5) #4
  call void @llvm.lifetime.end.p0(i64 4, ptr %4) #4
  call void @llvm.lifetime.end.p0(i64 8, ptr %3) #4
  ret void
}