; Function Attrs: cold nounwind optsize uwtable
define internal void @uninit(ptr noundef readonly captures(none) %0) #0 {
  %2 = getelementptr inbounds nuw i8, ptr %0, i64 72
  %3 = load ptr, ptr %2, align 8, !tbaa !4
  %4 = getelementptr inbounds nuw i8, ptr %3, i64 40
  tail call void @av_freep(ptr noundef nonnull %4) #6
  %5 = getelementptr inbounds nuw i8, ptr %3, i64 64
  tail call void @av_freep(ptr noundef nonnull %5) #6
  %6 = getelementptr inbounds nuw i8, ptr %3, i64 16
  %7 = load ptr, ptr %6, align 8, !tbaa !43
  %.not = icmp eq ptr %7, null
  br i1 %.not, label %20, label %.preheader

.preheader:                                       ; preds = %1
  %8 = getelementptr inbounds nuw i8, ptr %3, i64 24
  %9 = load i32, ptr %8, align 8, !tbaa !35
  %.not1822 = icmp slt i32 %9, 0
  br i1 %.not1822, label %._crit_edge25, label %.lr.ph

.lr.ph:                                           ; preds = %.preheader, %._crit_edge
  %indvars.iv31 = phi i64 [ %indvars.iv.next32, %._crit_edge ], [ 0, %.preheader ]
  %indvars.iv29 = phi i32 [ %indvars.iv.next30, %._crit_edge ], [ 1, %.preheader ]
  %indvars.iv = phi i64 [ %indvars.iv.next, %._crit_edge ], [ 0, %.preheader ]
  br label %10

10:                                               ; preds = %.lr.ph, %10
  %indvars.iv26 = phi i64 [ %indvars.iv, %.lr.ph ], [ %indvars.iv.next27, %10 ]
  %11 = load ptr, ptr %6, align 8, !tbaa !43
  %12 = getelementptr inbounds nuw ptr, ptr %11, i64 %indvars.iv31
  %13 = load ptr, ptr %12, align 8, !tbaa !36
  %14 = getelementptr ptr, ptr %13, i64 %indvars.iv26
  %15 = getelementptr ptr, ptr %14, i64 %indvars.iv31
  tail call void @av_freep(ptr noundef %15) #6
  %indvars.iv.next27 = add nsw i64 %indvars.iv26, 1
  %lftr.wideiv = trunc i64 %indvars.iv.next27 to i32
  %exitcond.not = icmp eq i32 %indvars.iv29, %lftr.wideiv
  br i1 %exitcond.not, label %._crit_edge, label %10, !llvm.loop !52

._crit_edge:                                      ; preds = %10
  %16 = load ptr, ptr %6, align 8, !tbaa !43
  %17 = getelementptr inbounds nuw ptr, ptr %16, i64 %indvars.iv31
  tail call void @av_freep(ptr noundef %17) #6
  %indvars.iv.next32 = add nuw nsw i64 %indvars.iv31, 1
  %18 = load i32, ptr %8, align 8, !tbaa !35
  %19 = sext i32 %18 to i64
  %.not18.not = icmp slt i64 %indvars.iv31, %19
  %indvars.iv.next = add nsw i64 %indvars.iv, -1
  %indvars.iv.next30 = add nuw i32 %indvars.iv29, 1
  br i1 %.not18.not, label %.lr.ph, label %._crit_edge25, !llvm.loop !53

._crit_edge25:                                    ; preds = %._crit_edge, %.preheader
  tail call void @av_freep(ptr noundef nonnull %6) #6
  br label %20

20:                                               ; preds = %._crit_edge25, %1
  ret void
}